target datalayout = "e-m:e-p270:32:32-p271:32:32-p272:64:64-i64:64-i128:128-f80:128-n8:16:32:64-S128"
target triple = "x86_64-pc-linux-gnu"

%struct.ossl_param_st = type { ptr, i32, ptr, i64, i64 }

@.str.53 = private unnamed_addr constant [31 x i8] c"../openssl/test/evp_kdf_test.c\00", align 1
@.str.71 = private unnamed_addr constant [5 x i8] c"salt\00", align 1
@.str.73 = private unnamed_addr constant [7 x i8] c"digest\00", align 1
@.str.76 = private unnamed_addr constant [4 x i8] c"mac\00", align 1
@.str.78 = private unnamed_addr constant [5 x i8] c"mode\00", align 1
@.str.80 = private unnamed_addr constant [4 x i8] c"key\00", align 1
@.str.92 = private unnamed_addr constant [8 x i8] c"COUNTER\00", align 1
@.str.93 = private unnamed_addr constant [5 x i8] c"info\00", align 1
@.str.94 = private unnamed_addr constant [2 x i8] c"r\00", align 1

; Function Attrs: nounwind uwtable
define internal ptr @construct_kbkdf_params(ptr noundef %0, ptr noundef %1, ptr noundef %2, i64 noundef %3, ptr noundef %4, ptr noundef %5, ptr noundef %6) #0 {
  %8 = alloca ptr, align 8
  %9 = alloca ptr, align 8
  %10 = alloca ptr, align 8
  %11 = alloca ptr, align 8
  %12 = alloca i64, align 8
  %13 = alloca ptr, align 8
  %14 = alloca ptr, align 8
  %15 = alloca ptr, align 8
  %16 = alloca ptr, align 8
  %17 = alloca ptr, align 8
  %18 = alloca i32, align 4
  %19 = alloca %struct.ossl_param_st, align 8
  %20 = alloca %struct.ossl_param_st, align 8
  %21 = alloca %struct.ossl_param_st, align 8
  %22 = alloca %struct.ossl_param_st, align 8
  %23 = alloca %struct.ossl_param_st, align 8
  %24 = alloca %struct.ossl_param_st, align 8
  %25 = alloca %struct.ossl_param_st, align 8
  %26 = alloca %struct.ossl_param_st, align 8
  store ptr %0, ptr %9, align 8, !tbaa !18
  store ptr %1, ptr %10, align 8, !tbaa !18
  store ptr %2, ptr %11, align 8, !tbaa !18
  store i64 %3, ptr %12, align 8, !tbaa !21
  store ptr %4, ptr %13, align 8, !tbaa !18
  store ptr %5, ptr %14, align 8, !tbaa !18
  store ptr %6, ptr %15, align 8, !tbaa !40
  call void @llvm.lifetime.start.p0(i64 8, ptr %16) #6
  %27 = call noalias ptr @CRYPTO_malloc(i64 noundef 320, ptr noundef @.str.53, i32 noundef 1128)
  store ptr %27, ptr %16, align 8, !tbaa !13
  call void @llvm.lifetime.start.p0(i64 8, ptr %17) #6
  %28 = load ptr, ptr %16, align 8, !tbaa !13
  store ptr %28, ptr %17, align 8, !tbaa !13
  %29 = load ptr, ptr %16, align 8, !tbaa !13
  %30 = icmp eq ptr %29, null
  br i1 %30, label %31, label %32

31:                                               ; preds = %7
  store ptr null, ptr %8, align 8
  store i32 1, ptr %18, align 4
  br label %60

32:                                               ; preds = %7
  %33 = load ptr, ptr %17, align 8, !tbaa !13
  %34 = getelementptr inbounds nuw %struct.ossl_param_st, ptr %33, i32 1
  store ptr %34, ptr %17, align 8, !tbaa !13
  call void @llvm.lifetime.start.p0(i64 40, ptr %19) #6
  %35 = load ptr, ptr %9, align 8, !tbaa !18
  call void @OSSL_PARAM_construct_utf8_string(ptr dead_on_unwind writable sret(%struct.ossl_param_st) align 8 %19, ptr noundef @.str.73, ptr noundef %35, i64 noundef 0)
  call void @llvm.memcpy.p0.p0.i64(ptr align 8 %33, ptr align 8 %19, i64 40, i1 false), !tbaa.struct !17
  call void @llvm.lifetime.end.p0(i64 40, ptr %19) #6
  %36 = load ptr, ptr %17, align 8, !tbaa !13
  %37 = getelementptr inbounds nuw %struct.ossl_param_st, ptr %36, i32 1
  store ptr %37, ptr %17, align 8, !tbaa !13
  call void @llvm.lifetime.start.p0(i64 40, ptr %20) #6
  %38 = load ptr, ptr %10, align 8, !tbaa !18
  call void @OSSL_PARAM_construct_utf8_string(ptr dead_on_unwind writable sret(%struct.ossl_param_st) align 8 %20, ptr noundef @.str.76, ptr noundef %38, i64 noundef 0)
  call void @llvm.memcpy.p0.p0.i64(ptr align 8 %36, ptr align 8 %20, i64 40, i1 false), !tbaa.struct !17
  call void @llvm.lifetime.end.p0(i64 40, ptr %20) #6
  %39 = load ptr, ptr %17, align 8, !tbaa !13
  %40 = getelementptr inbounds nuw %struct.ossl_param_st, ptr %39, i32 1
  store ptr %40, ptr %17, align 8, !tbaa !13
  call void @llvm.lifetime.start.p0(i64 40, ptr %21) #6
  call void @OSSL_PARAM_construct_utf8_string(ptr dead_on_unwind writable sret(%struct.ossl_param_st) align 8 %21, ptr noundef @.str.78, ptr noundef @.str.92, i64 noundef 0)
  call void @llvm.memcpy.p0.p0.i64(ptr align 8 %39, ptr align 8 %21, i64 40, i1 false), !tbaa.struct !17
  call void @llvm.lifetime.end.p0(i64 40, ptr %21) #6
  %41 = load ptr, ptr %17, align 8, !tbaa !13
  %42 = getelementptr inbounds nuw %struct.ossl_param_st, ptr %41, i32 1
  store ptr %42, ptr %17, align 8, !tbaa !13
  call void @llvm.lifetime.start.p0(i64 40, ptr %22) #6
  %43 = load ptr, ptr %11, align 8, !tbaa !18
  %44 = load i64, ptr %12, align 8, !tbaa !21
  call void @OSSL_PARAM_construct_octet_string(ptr dead_on_unwind writable sret(%struct.ossl_param_st) align 8 %22, ptr noundef @.str.80, ptr noundef %43, i64 noundef %44)
  call void @llvm.memcpy.p0.p0.i64(ptr align 8 %41, ptr align 8 %22, i64 40, i1 false), !tbaa.struct !17
  call void @llvm.lifetime.end.p0(i64 40, ptr %22) #6
  %45 = load ptr, ptr %17, align 8, !tbaa !13
  %46 = getelementptr inbounds nuw %struct.ossl_param_st, ptr %45, i32 1
  store ptr %46, ptr %17, align 8, !tbaa !13
  call void @llvm.lifetime.start.p0(i64 40, ptr %23) #6
  %47 = load ptr, ptr %13, align 8, !tbaa !18
  %48 = load ptr, ptr %13, align 8, !tbaa !18
  %49 = call i64 @strlen(ptr noundef %48) #7
  call void @OSSL_PARAM_construct_octet_string(ptr dead_on_unwind writable sret(%struct.ossl_param_st) align 8 %23, ptr noundef @.str.71, ptr noundef %47, i64 noundef %49)
  call void @llvm.memcpy.p0.p0.i64(ptr align 8 %45, ptr align 8 %23, i64 40, i1 false), !tbaa.struct !17
  call void @llvm.lifetime.end.p0(i64 40, ptr %23) #6
  %50 = load ptr, ptr %17, align 8, !tbaa !13
  %51 = getelementptr inbounds nuw %struct.ossl_param_st, ptr %50, i32 1
  store ptr %51, ptr %17, align 8, !tbaa !13
  call void @llvm.lifetime.start.p0(i64 40, ptr %24) #6
  %52 = load ptr, ptr %14, align 8, !tbaa !18
  %53 = load ptr, ptr %14, align 8, !tbaa !18
  %54 = call i64 @strlen(ptr noundef %53) #7
  call void @OSSL_PARAM_construct_octet_string(ptr dead_on_unwind writable sret(%struct.ossl_param_st) align 8 %24, ptr noundef @.str.93, ptr noundef %52, i64 noundef %54)
  call void @llvm.memcpy.p0.p0.i64(ptr align 8 %50, ptr align 8 %24, i64 40, i1 false), !tbaa.struct !17
  call void @llvm.lifetime.end.p0(i64 40, ptr %24) #6
  %55 = load ptr, ptr %17, align 8, !tbaa !13
  %56 = getelementptr inbounds nuw %struct.ossl_param_st, ptr %55, i32 1
  store ptr %56, ptr %17, align 8, !tbaa !13
  call void @llvm.lifetime.start.p0(i64 40, ptr %25) #6
  %57 = load ptr, ptr %15, align 8, !tbaa !40
  call void @OSSL_PARAM_construct_int(ptr dead_on_unwind writable sret(%struct.ossl_param_st) align 8 %25, ptr noundef @.str.94, ptr noundef %57)
  call void @llvm.memcpy.p0.p0.i64(ptr align 8 %55, ptr align 8 %25, i64 40, i1 false), !tbaa.struct !17
  call void @llvm.lifetime.end.p0(i64 40, ptr %25) #6
  %58 = load ptr, ptr %17, align 8, !tbaa !13
  call void @llvm.lifetime.start.p0(i64 40, ptr %26) #6
  call void @OSSL_PARAM_construct_end(ptr dead_on_unwind writable sret(%struct.ossl_param_st) align 8 %26)
  call void @llvm.memcpy.p0.p0.i64(ptr align 8 %58, ptr align 8 %26, i64 40, i1 false), !tbaa.struct !17
  call void @llvm.lifetime.end.p0(i64 40, ptr %26) #6
  %59 = load ptr, ptr %16, align 8, !tbaa !13
  store ptr %59, ptr %8, align 8
  store i32 1, ptr %18, align 4
  br label %60

60:                                               ; preds = %32, %31
  call void @llvm.lifetime.end.p0(i64 8, ptr %17) #6
  call void @llvm.lifetime.end.p0(i64 8, ptr %16) #6
  %61 = load ptr, ptr %8, align 8
  ret ptr %61
}